; Function Attrs: mustprogress nofree norecurse nosync nounwind willreturn memory(argmem: readwrite) uwtable
define dso_local void @_ZN7doctest8toStringEDn(ptr dead_on_unwind noalias writable writeonly sret(%"class.doctest::String") align 8 captures(none) initializes((0, 8), (23, 24)) %0, ptr readnone captures(none) %1) local_unnamed_addr #18 {
_ZN7doctest6StringC2EPKc.exit:
  %2 = getelementptr inbounds nuw i8, ptr %0, i64 7
  store i8 0, ptr %2, align 1, !tbaa !38
  %3 = getelementptr inbounds nuw i8, ptr %0, i64 23
  store i8 16, ptr %3, align 1, !tbaa !38
  tail call void @llvm.memcpy.p0.p0.i64(ptr noundef nonnull align 8 dereferenceable(7) %0, ptr noundef nonnull readonly align 1 dereferenceable(7) @.str.54, i64 7, i1 false)
  ret void
}